target datalayout = "e-m:e-p270:32:32-p271:32:32-p272:64:64-i64:64-f80:128-n8:16:32:64-S128"
target triple = "x86_64-pc-linux-gnu"

@.str = private unnamed_addr constant [3 x i8] c"%d\00", align 1
@.str.1 = private unnamed_addr constant [5 x i8] c"%d%d\00", align 1
@.str.2 = private unnamed_addr constant [4 x i8] c"%d\0A\00", align 1

; Function Attrs: noinline nounwind uwtable
define dso_local i32 @main() #0 {
  %1 = alloca i32, align 4
  %2 = alloca [100 x [100 x i32]], align 16
  %3 = alloca i32, align 4
  %4 = alloca i32, align 4
  %5 = alloca i32, align 4
  %6 = alloca i32, align 4
  %7 = alloca i32, align 4
  %8 = alloca i32, align 4
  %9 = alloca i32, align 4
  store i32 0, i32* %1, align 4
  %10 = call i32 (i8*, ...) @__isoc99_scanf(i8* getelementptr inbounds ([3 x i8], [3 x i8]* @.str, i64 0, i64 0), i32* %5)
  store i32 0, i32* %8, align 4
  br label %11

11:                                               ; preds = %120, %0
  %12 = load i32, i32* %8, align 4
  %13 = load i32, i32* %5, align 4
  %14 = icmp slt i32 %12, %13
  br i1 %14, label %15, label %123

15:                                               ; preds = %11
  store i32 0, i32* %9, align 4
  %16 = call i32 (i8*, ...) @__isoc99_scanf(i8* getelementptr inbounds ([5 x i8], [5 x i8]* @.str.1, i64 0, i64 0), i32* %7, i32* %4)
  store i32 0, i32* %6, align 4
  br label %17

17:                                               ; preds = %38, %15
  %18 = load i32, i32* %6, align 4
  %19 = load i32, i32* %7, align 4
  %20 = icmp slt i32 %18, %19
  br i1 %20, label %21, label %41

21:                                               ; preds = %17
  store i32 0, i32* %3, align 4
  br label %22

22:                                               ; preds = %34, %21
  %23 = load i32, i32* %3, align 4
  %24 = load i32, i32* %4, align 4
  %25 = icmp slt i32 %23, %24
  br i1 %25, label %26, label %37

26:                                               ; preds = %22
  %27 = load i32, i32* %6, align 4
  %28 = sext i32 %27 to i64
  %29 = getelementptr inbounds [100 x [100 x i32]], [100 x [100 x i32]]* %2, i64 0, i64 %28
  %30 = load i32, i32* %3, align 4
  %31 = sext i32 %30 to i64
  %32 = getelementptr inbounds [100 x i32], [100 x i32]* %29, i64 0, i64 %31
  %33 = call i32 (i8*, ...) @__isoc99_scanf(i8* getelementptr inbounds ([3 x i8], [3 x i8]* @.str, i64 0, i64 0), i32* %32)
  br label %34

34:                                               ; preds = %26
  %35 = load i32, i32* %3, align 4
  %36 = add nsw i32 %35, 1
  store i32 %36, i32* %3, align 4
  br label %22

37:                                               ; preds = %22
  br label %38

38:                                               ; preds = %37
  %39 = load i32, i32* %6, align 4
  %40 = add nsw i32 %39, 1
  store i32 %40, i32* %6, align 4
  br label %17

41:                                               ; preds = %17
  store i32 0, i32* %6, align 4
  store i32 0, i32* %3, align 4
  br label %42

42:                                               ; preds = %54, %41
  %43 = load i32, i32* %3, align 4
  %44 = load i32, i32* %4, align 4
  %45 = icmp slt i32 %43, %44
  br i1 %45, label %46, label %57

46:                                               ; preds = %42
  %47 = getelementptr inbounds [100 x [100 x i32]], [100 x [100 x i32]]* %2, i64 0, i64 0
  %48 = load i32, i32* %3, align 4
  %49 = sext i32 %48 to i64
  %50 = getelementptr inbounds [100 x i32], [100 x i32]* %47, i64 0, i64 %49
  %51 = load i32, i32* %50, align 4
  %52 = load i32, i32* %9, align 4
  %53 = add nsw i32 %52, %51
  store i32 %53, i32* %9, align 4
  br label %54

54:                                               ; preds = %46
  %55 = load i32, i32* %3, align 4
  %56 = add nsw i32 %55, 1
  store i32 %56, i32* %3, align 4
  br label %42

57:                                               ; preds = %42
  %58 = load i32, i32* %7, align 4
  %59 = sub nsw i32 %58, 1
  store i32 %59, i32* %6, align 4
  store i32 0, i32* %3, align 4
  br label %60

60:                                               ; preds = %75, %57
  %61 = load i32, i32* %3, align 4
  %62 = load i32, i32* %4, align 4
  %63 = icmp slt i32 %61, %62
  br i1 %63, label %64, label %78

64:                                               ; preds = %60
  %65 = load i32, i32* %7, align 4
  %66 = sub nsw i32 %65, 1
  %67 = sext i32 %66 to i64
  %68 = getelementptr inbounds [100 x [100 x i32]], [100 x [100 x i32]]* %2, i64 0, i64 %67
  %69 = load i32, i32* %3, align 4
  %70 = sext i32 %69 to i64
  %71 = getelementptr inbounds [100 x i32], [100 x i32]* %68, i64 0, i64 %70
  %72 = load i32, i32* %71, align 4
  %73 = load i32, i32* %9, align 4
  %74 = add nsw i32 %73, %72
  store i32 %74, i32* %9, align 4
  br label %75

75:                                               ; preds = %64
  %76 = load i32, i32* %3, align 4
  %77 = add nsw i32 %76, 1
  store i32 %77, i32* %3, align 4
  br label %60

78:                                               ; preds = %60
  store i32 0, i32* %3, align 4
  store i32 1, i32* %6, align 4
  br label %79

79:                                               ; preds = %92, %78
  %80 = load i32, i32* %6, align 4
  %81 = load i32, i32* %7, align 4
  %82 = sub nsw i32 %81, 1
  %83 = icmp slt i32 %80, %82
  br i1 %83, label %84, label %95

84:                                               ; preds = %79
  %85 = load i32, i32* %6, align 4
  %86 = sext i32 %85 to i64
  %87 = getelementptr inbounds [100 x [100 x i32]], [100 x [100 x i32]]* %2, i64 0, i64 %86
  %88 = getelementptr inbounds [100 x i32], [100 x i32]* %87, i64 0, i64 0
  %89 = load i32, i32* %88, align 16
  %90 = load i32, i32* %9, align 4
  %91 = add nsw i32 %90, %89
  store i32 %91, i32* %9, align 4
  br label %92

92:                                               ; preds = %84
  %93 = load i32, i32* %6, align 4
  %94 = add nsw i32 %93, 1
  store i32 %94, i32* %6, align 4
  br label %79

95:                                               ; preds = %79
  %96 = load i32, i32* %4, align 4
  %97 = sub nsw i32 %96, 1
  store i32 %97, i32* %3, align 4
  store i32 1, i32* %6, align 4
  br label %98

98:                                               ; preds = %114, %95
  %99 = load i32, i32* %6, align 4
  %100 = load i32, i32* %7, align 4
  %101 = sub nsw i32 %100, 1
  %102 = icmp slt i32 %99, %101
  br i1 %102, label %103, label %117

103:                                              ; preds = %98
  %104 = load i32, i32* %6, align 4
  %105 = sext i32 %104 to i64
  %106 = getelementptr inbounds [100 x [100 x i32]], [100 x [100 x i32]]* %2, i64 0, i64 %105
  %107 = load i32, i32* %4, align 4
  %108 = sub nsw i32 %107, 1
  %109 = sext i32 %108 to i64
  %110 = getelementptr inbounds [100 x i32], [100 x i32]* %106, i64 0, i64 %109
  %111 = load i32, i32* %110, align 4
  %112 = load i32, i32* %9, align 4
  %113 = add nsw i32 %112, %111
  store i32 %113, i32* %9, align 4
  br label %114

114:                                              ; preds = %103
  %115 = load i32, i32* %6, align 4
  %116 = add nsw i32 %115, 1
  store i32 %116, i32* %6, align 4
  br label %98

117:                                              ; preds = %98
  %118 = load i32, i32* %9, align 4
  %119 = call i32 (i8*, ...) @printf(i8* getelementptr inbounds ([4 x i8], [4 x i8]* @.str.2, i64 0, i64 0), i32 %118)
  br label %120

120:                                              ; preds = %117
  %121 = load i32, i32* %8, align 4
  %122 = add nsw i32 %121, 1
  store i32 %122, i32* %8, align 4
  br label %11

123:                                              ; preds = %11
  ret i32 0
}